target datalayout = "e-m:e-p270:32:32-p271:32:32-p272:64:64-i64:64-i128:128-f80:128-n8:16:32:64-S128"
target triple = "x86_64-pc-linux-gnu"

; Function Attrs: mustprogress nounwind uwtable
define noundef zeroext i1 @_ZNK10open_spiel10backgammon15BackgammonState5IsOffEii(ptr noundef nonnull align 8 dereferenceable(216) %0, i32 noundef %1, i32 noundef %2) #4 align 2 {
  %4 = alloca ptr, align 8
  %5 = alloca i32, align 4
  %6 = alloca i32, align 4
  store ptr %0, ptr %4, align 8
  store i32 %1, ptr %5, align 4
  store i32 %2, ptr %6, align 4
  %7 = load i32, ptr %5, align 4
  %8 = icmp eq i32 %7, 0
  br i1 %8, label %9, label %12

9:                                                ; preds = %3
  %10 = load i32, ptr %6, align 4
  %11 = icmp sgt i32 %10, 23
  br i1 %11, label %20, label %12

12:                                               ; preds = %9, %3
  %13 = load i32, ptr %5, align 4
  %14 = icmp eq i32 %13, 1
  br i1 %14, label %15, label %18

15:                                               ; preds = %12
  %16 = load i32, ptr %6, align 4
  %17 = icmp slt i32 %16, 0
  br label %18

18:                                               ; preds = %15, %12
  %19 = phi i1 [ false, %12 ], [ %17, %15 ]
  br label %20

20:                                               ; preds = %18, %9
  %21 = phi i1 [ true, %9 ], [ %19, %18 ]
  ret i1 %21
}