; Function Attrs: mustprogress nofree norecurse nosync nounwind willreturn memory(none) uwtable
define noundef zeroext i1 @_ZNK10open_spiel10backgammon15BackgammonState5IsOffEii(ptr nocapture noundef nonnull readnone align 8 dereferenceable(216) %0, i32 noundef %1, i32 noundef %2) local_unnamed_addr #7 align 2 {
  %4 = icmp eq i32 %1, 0
  %5 = icmp sgt i32 %2, 23
  %or.cond = and i1 %4, %5
  br i1 %or.cond, label %10, label %6

6:                                                ; preds = %3
  %7 = icmp eq i32 %1, 1
  %8 = icmp slt i32 %2, 0
  %9 = and i1 %7, %8
  br label %10

10:                                               ; preds = %3, %6
  %11 = phi i1 [ %9, %6 ], [ true, %3 ]
  ret i1 %11
}